target datalayout = "e-m:e-p270:32:32-p271:32:32-p272:64:64-i64:64-i128:128-f80:128-n8:16:32:64-S128"
target triple = "x86_64-pc-linux-gnu"

%union.anon = type { double }
%struct.HeapTupleData = type { i32, %struct.ItemPointerData, i32, ptr }
%struct.ItemPointerData = type { %struct.BlockIdData, i16 }
%struct.BlockIdData = type { i16, i16 }
%struct.PgStat_WalStats = type { i64, i64, i64, i64, i64, i64, i64, i64, i64 }

@.str.19 = private unnamed_addr constant [12 x i8] c"wal_records\00", align 1
@.str.20 = private unnamed_addr constant [8 x i8] c"wal_fpi\00", align 1
@.str.21 = private unnamed_addr constant [10 x i8] c"wal_bytes\00", align 1
@.str.22 = private unnamed_addr constant [17 x i8] c"wal_buffers_full\00", align 1
@.str.23 = private unnamed_addr constant [10 x i8] c"wal_write\00", align 1
@.str.24 = private unnamed_addr constant [9 x i8] c"wal_sync\00", align 1
@.str.25 = private unnamed_addr constant [15 x i8] c"wal_write_time\00", align 1
@.str.26 = private unnamed_addr constant [14 x i8] c"wal_sync_time\00", align 1
@.str.27 = private unnamed_addr constant [12 x i8] c"stats_reset\00", align 1
@.str.28 = private unnamed_addr constant [4 x i8] c"%lu\00", align 1

; Function Attrs: inlinehint nounwind uwtable
define internal i64 @PointerGetDatum(ptr noundef %0) #2 {
  %2 = alloca ptr, align 8
  store ptr %0, ptr %2, align 8
  %3 = load ptr, ptr %2, align 8
  %4 = ptrtoint ptr %3 to i64
  ret i64 %4
}

; Function Attrs: inlinehint nounwind uwtable
define internal i64 @HeapTupleGetDatum(ptr noundef %0) #2 {
  %2 = alloca ptr, align 8
  store ptr %0, ptr %2, align 8
  %3 = load ptr, ptr %2, align 8
  %4 = getelementptr inbounds nuw %struct.HeapTupleData, ptr %3, i32 0, i32 3
  %5 = load ptr, ptr %4, align 8
  %6 = call i64 @HeapTupleHeaderGetDatum(ptr noundef %5)
  ret i64 %6
}

; Function Attrs: inlinehint nounwind uwtable
define internal i64 @TimestampTzGetDatum(i64 noundef %0) #2 {
  %2 = alloca i64, align 8
  store i64 %0, ptr %2, align 8
  %3 = load i64, ptr %2, align 8
  %4 = call i64 @Int64GetDatum(i64 noundef %3)
  ret i64 %4
}

; Function Attrs: inlinehint nounwind uwtable
define internal i64 @Float8GetDatum(double noundef %0) #2 {
  %2 = alloca double, align 8
  %3 = alloca %union.anon, align 8
  store double %0, ptr %2, align 8
  call void @llvm.lifetime.start.p0(i64 8, ptr %3) #10
  %4 = load double, ptr %2, align 8
  store double %4, ptr %3, align 8
  %5 = load i64, ptr %3, align 8
  %6 = call i64 @Int64GetDatum(i64 noundef %5)
  call void @llvm.lifetime.end.p0(i64 8, ptr %3) #10
  ret i64 %6
}

; Function Attrs: inlinehint nounwind uwtable
define internal i64 @Int32GetDatum(i32 noundef %0) #2 {
  %2 = alloca i32, align 4
  store i32 %0, ptr %2, align 4
  %3 = load i32, ptr %2, align 4
  %4 = sext i32 %3 to i64
  ret i64 %4
}

; Function Attrs: inlinehint nounwind uwtable
define internal i64 @ObjectIdGetDatum(i32 noundef %0) #2 {
  %2 = alloca i32, align 4
  store i32 %0, ptr %2, align 4
  %3 = load i32, ptr %2, align 4
  %4 = zext i32 %3 to i64
  ret i64 %4
}

; Function Attrs: inlinehint nounwind uwtable
define internal i64 @CStringGetDatum(ptr noundef %0) #2 {
  %2 = alloca ptr, align 8
  store ptr %0, ptr %2, align 8
  %3 = load ptr, ptr %2, align 8
  %4 = call i64 @PointerGetDatum(ptr noundef %3)
  ret i64 %4
}

; Function Attrs: inlinehint nounwind uwtable
define internal i64 @Int64GetDatum(i64 noundef %0) #2 {
  %2 = alloca i64, align 8
  store i64 %0, ptr %2, align 8
  %3 = load i64, ptr %2, align 8
  ret i64 %3
}

; Function Attrs: nounwind uwtable
define dso_local i64 @pg_stat_get_wal(ptr noundef %0) #0 {
  %2 = alloca ptr, align 8
  %3 = alloca ptr, align 8
  %4 = alloca [9 x i64], align 16
  %5 = alloca [9 x i8], align 1
  %6 = alloca [256 x i8], align 16
  %7 = alloca ptr, align 8
  store ptr %0, ptr %2, align 8
  call void @llvm.lifetime.start.p0(i64 8, ptr %3) #10
  call void @llvm.lifetime.start.p0(i64 72, ptr %4) #10
  call void @llvm.memset.p0.i64(ptr align 16 %4, i8 0, i64 72, i1 false)
  call void @llvm.lifetime.start.p0(i64 9, ptr %5) #10
  call void @llvm.memset.p0.i64(ptr align 1 %5, i8 0, i64 9, i1 false)
  call void @llvm.lifetime.start.p0(i64 256, ptr %6) #10
  call void @llvm.lifetime.start.p0(i64 8, ptr %7) #10
  %8 = call ptr @CreateTemplateTupleDesc(i32 noundef 9)
  store ptr %8, ptr %3, align 8
  %9 = load ptr, ptr %3, align 8
  call void @TupleDescInitEntry(ptr noundef %9, i16 noundef signext 1, ptr noundef @.str.19, i32 noundef 20, i32 noundef -1, i32 noundef 0)
  %10 = load ptr, ptr %3, align 8
  call void @TupleDescInitEntry(ptr noundef %10, i16 noundef signext 2, ptr noundef @.str.20, i32 noundef 20, i32 noundef -1, i32 noundef 0)
  %11 = load ptr, ptr %3, align 8
  call void @TupleDescInitEntry(ptr noundef %11, i16 noundef signext 3, ptr noundef @.str.21, i32 noundef 1700, i32 noundef -1, i32 noundef 0)
  %12 = load ptr, ptr %3, align 8
  call void @TupleDescInitEntry(ptr noundef %12, i16 noundef signext 4, ptr noundef @.str.22, i32 noundef 20, i32 noundef -1, i32 noundef 0)
  %13 = load ptr, ptr %3, align 8
  call void @TupleDescInitEntry(ptr noundef %13, i16 noundef signext 5, ptr noundef @.str.23, i32 noundef 20, i32 noundef -1, i32 noundef 0)
  %14 = load ptr, ptr %3, align 8
  call void @TupleDescInitEntry(ptr noundef %14, i16 noundef signext 6, ptr noundef @.str.24, i32 noundef 20, i32 noundef -1, i32 noundef 0)
  %15 = load ptr, ptr %3, align 8
  call void @TupleDescInitEntry(ptr noundef %15, i16 noundef signext 7, ptr noundef @.str.25, i32 noundef 701, i32 noundef -1, i32 noundef 0)
  %16 = load ptr, ptr %3, align 8
  call void @TupleDescInitEntry(ptr noundef %16, i16 noundef signext 8, ptr noundef @.str.26, i32 noundef 701, i32 noundef -1, i32 noundef 0)
  %17 = load ptr, ptr %3, align 8
  call void @TupleDescInitEntry(ptr noundef %17, i16 noundef signext 9, ptr noundef @.str.27, i32 noundef 1184, i32 noundef -1, i32 noundef 0)
  %18 = load ptr, ptr %3, align 8
  %19 = call ptr @BlessTupleDesc(ptr noundef %18)
  %20 = call ptr @pgstat_fetch_stat_wal()
  store ptr %20, ptr %7, align 8
  %21 = load ptr, ptr %7, align 8
  %22 = getelementptr inbounds nuw %struct.PgStat_WalStats, ptr %21, i32 0, i32 0
  %23 = load i64, ptr %22, align 8
  %24 = call i64 @Int64GetDatum(i64 noundef %23)
  %25 = getelementptr inbounds [9 x i64], ptr %4, i64 0, i64 0
  store i64 %24, ptr %25, align 16
  %26 = load ptr, ptr %7, align 8
  %27 = getelementptr inbounds nuw %struct.PgStat_WalStats, ptr %26, i32 0, i32 1
  %28 = load i64, ptr %27, align 8
  %29 = call i64 @Int64GetDatum(i64 noundef %28)
  %30 = getelementptr inbounds [9 x i64], ptr %4, i64 0, i64 1
  store i64 %29, ptr %30, align 8
  %31 = getelementptr inbounds [256 x i8], ptr %6, i64 0, i64 0
  %32 = load ptr, ptr %7, align 8
  %33 = getelementptr inbounds nuw %struct.PgStat_WalStats, ptr %32, i32 0, i32 2
  %34 = load i64, ptr %33, align 8
  %35 = call i32 (ptr, i64, ptr, ...) @pg_snprintf(ptr noundef %31, i64 noundef 256, ptr noundef @.str.28, i64 noundef %34)
  %36 = getelementptr inbounds [256 x i8], ptr %6, i64 0, i64 0
  %37 = call i64 @CStringGetDatum(ptr noundef %36)
  %38 = call i64 @ObjectIdGetDatum(i32 noundef 0)
  %39 = call i64 @Int32GetDatum(i32 noundef -1)
  %40 = call i64 @DirectFunctionCall3Coll(ptr noundef @numeric_in, i32 noundef 0, i64 noundef %37, i64 noundef %38, i64 noundef %39)
  %41 = getelementptr inbounds [9 x i64], ptr %4, i64 0, i64 2
  store i64 %40, ptr %41, align 16
  %42 = load ptr, ptr %7, align 8
  %43 = getelementptr inbounds nuw %struct.PgStat_WalStats, ptr %42, i32 0, i32 3
  %44 = load i64, ptr %43, align 8
  %45 = call i64 @Int64GetDatum(i64 noundef %44)
  %46 = getelementptr inbounds [9 x i64], ptr %4, i64 0, i64 3
  store i64 %45, ptr %46, align 8
  %47 = load ptr, ptr %7, align 8
  %48 = getelementptr inbounds nuw %struct.PgStat_WalStats, ptr %47, i32 0, i32 4
  %49 = load i64, ptr %48, align 8
  %50 = call i64 @Int64GetDatum(i64 noundef %49)
  %51 = getelementptr inbounds [9 x i64], ptr %4, i64 0, i64 4
  store i64 %50, ptr %51, align 16
  %52 = load ptr, ptr %7, align 8
  %53 = getelementptr inbounds nuw %struct.PgStat_WalStats, ptr %52, i32 0, i32 5
  %54 = load i64, ptr %53, align 8
  %55 = call i64 @Int64GetDatum(i64 noundef %54)
  %56 = getelementptr inbounds [9 x i64], ptr %4, i64 0, i64 5
  store i64 %55, ptr %56, align 8
  %57 = load ptr, ptr %7, align 8
  %58 = getelementptr inbounds nuw %struct.PgStat_WalStats, ptr %57, i32 0, i32 6
  %59 = load i64, ptr %58, align 8
  %60 = sitofp i64 %59 to double
  %61 = fdiv double %60, 1.000000e+03
  %62 = call i64 @Float8GetDatum(double noundef %61)
  %63 = getelementptr inbounds [9 x i64], ptr %4, i64 0, i64 6
  store i64 %62, ptr %63, align 16
  %64 = load ptr, ptr %7, align 8
  %65 = getelementptr inbounds nuw %struct.PgStat_WalStats, ptr %64, i32 0, i32 7
  %66 = load i64, ptr %65, align 8
  %67 = sitofp i64 %66 to double
  %68 = fdiv double %67, 1.000000e+03
  %69 = call i64 @Float8GetDatum(double noundef %68)
  %70 = getelementptr inbounds [9 x i64], ptr %4, i64 0, i64 7
  store i64 %69, ptr %70, align 8
  %71 = load ptr, ptr %7, align 8
  %72 = getelementptr inbounds nuw %struct.PgStat_WalStats, ptr %71, i32 0, i32 8
  %73 = load i64, ptr %72, align 8
  %74 = call i64 @TimestampTzGetDatum(i64 noundef %73)
  %75 = getelementptr inbounds [9 x i64], ptr %4, i64 0, i64 8
  store i64 %74, ptr %75, align 16
  %76 = load ptr, ptr %3, align 8
  %77 = getelementptr inbounds [9 x i64], ptr %4, i64 0, i64 0
  %78 = getelementptr inbounds [9 x i8], ptr %5, i64 0, i64 0
  %79 = call ptr @heap_form_tuple(ptr noundef %76, ptr noundef %77, ptr noundef %78)
  %80 = call i64 @HeapTupleGetDatum(ptr noundef %79)
  call void @llvm.lifetime.end.p0(i64 8, ptr %7) #10
  call void @llvm.lifetime.end.p0(i64 256, ptr %6) #10
  call void @llvm.lifetime.end.p0(i64 9, ptr %5) #10
  call void @llvm.lifetime.end.p0(i64 72, ptr %4) #10
  call void @llvm.lifetime.end.p0(i64 8, ptr %3) #10
  ret i64 %80
}