; Function Attrs: nounwind uwtable
define dso_local i64 @pg_stat_get_wal(ptr noundef readnone captures(none) %0) local_unnamed_addr #0 {
  %2 = alloca [9 x i64], align 16
  %3 = alloca [9 x i8], align 1
  %4 = alloca [256 x i8], align 16
  call void @llvm.lifetime.start.p0(i64 72, ptr nonnull %2) #9
  call void @llvm.lifetime.start.p0(i64 9, ptr nonnull %3) #9
  call void @llvm.memset.p0.i64(ptr noundef nonnull align 1 dereferenceable(9) %3, i8 0, i64 9, i1 false)
  call void @llvm.lifetime.start.p0(i64 256, ptr nonnull %4) #9
  %5 = tail call ptr @CreateTemplateTupleDesc(i32 noundef 9) #9
  tail call void @TupleDescInitEntry(ptr noundef %5, i16 noundef signext 1, ptr noundef nonnull @.str.19, i32 noundef 20, i32 noundef -1, i32 noundef 0) #9
  tail call void @TupleDescInitEntry(ptr noundef %5, i16 noundef signext 2, ptr noundef nonnull @.str.20, i32 noundef 20, i32 noundef -1, i32 noundef 0) #9
  tail call void @TupleDescInitEntry(ptr noundef %5, i16 noundef signext 3, ptr noundef nonnull @.str.21, i32 noundef 1700, i32 noundef -1, i32 noundef 0) #9
  tail call void @TupleDescInitEntry(ptr noundef %5, i16 noundef signext 4, ptr noundef nonnull @.str.22, i32 noundef 20, i32 noundef -1, i32 noundef 0) #9
  tail call void @TupleDescInitEntry(ptr noundef %5, i16 noundef signext 5, ptr noundef nonnull @.str.23, i32 noundef 20, i32 noundef -1, i32 noundef 0) #9
  tail call void @TupleDescInitEntry(ptr noundef %5, i16 noundef signext 6, ptr noundef nonnull @.str.24, i32 noundef 20, i32 noundef -1, i32 noundef 0) #9
  tail call void @TupleDescInitEntry(ptr noundef %5, i16 noundef signext 7, ptr noundef nonnull @.str.25, i32 noundef 701, i32 noundef -1, i32 noundef 0) #9
  tail call void @TupleDescInitEntry(ptr noundef %5, i16 noundef signext 8, ptr noundef nonnull @.str.26, i32 noundef 701, i32 noundef -1, i32 noundef 0) #9
  tail call void @TupleDescInitEntry(ptr noundef %5, i16 noundef signext 9, ptr noundef nonnull @.str.27, i32 noundef 1184, i32 noundef -1, i32 noundef 0) #9
  %6 = tail call ptr @BlessTupleDesc(ptr noundef %5) #9
  %7 = tail call ptr @pgstat_fetch_stat_wal() #9
  %8 = load i64, ptr %7, align 8
  store i64 %8, ptr %2, align 16
  %9 = getelementptr inbounds nuw i8, ptr %7, i64 8
  %10 = load i64, ptr %9, align 8
  %11 = getelementptr inbounds nuw i8, ptr %2, i64 8
  store i64 %10, ptr %11, align 8
  %12 = getelementptr inbounds nuw i8, ptr %7, i64 16
  %13 = load i64, ptr %12, align 8
  %14 = call i32 (ptr, i64, ptr, ...) @pg_snprintf(ptr noundef nonnull %4, i64 noundef 256, ptr noundef nonnull @.str.28, i64 noundef %13) #9
  %15 = ptrtoint ptr %4 to i64
  %16 = call i64 @DirectFunctionCall3Coll(ptr noundef nonnull @numeric_in, i32 noundef 0, i64 noundef %15, i64 noundef 0, i64 noundef -1) #9
  %17 = getelementptr inbounds nuw i8, ptr %2, i64 16
  store i64 %16, ptr %17, align 16
  %18 = getelementptr inbounds nuw i8, ptr %7, i64 24
  %19 = load i64, ptr %18, align 8
  %20 = getelementptr inbounds nuw i8, ptr %2, i64 24
  store i64 %19, ptr %20, align 8
  %21 = getelementptr inbounds nuw i8, ptr %7, i64 32
  %22 = load i64, ptr %21, align 8
  %23 = getelementptr inbounds nuw i8, ptr %2, i64 32
  store i64 %22, ptr %23, align 16
  %24 = getelementptr inbounds nuw i8, ptr %7, i64 40
  %25 = load i64, ptr %24, align 8
  %26 = getelementptr inbounds nuw i8, ptr %2, i64 40
  store i64 %25, ptr %26, align 8
  %27 = getelementptr inbounds nuw i8, ptr %7, i64 48
  %28 = load i64, ptr %27, align 8
  %29 = sitofp i64 %28 to double
  %30 = fdiv double %29, 1.000000e+03
  %31 = getelementptr inbounds nuw i8, ptr %2, i64 48
  store double %30, ptr %31, align 16
  %32 = getelementptr inbounds nuw i8, ptr %7, i64 56
  %33 = load i64, ptr %32, align 8
  %34 = sitofp i64 %33 to double
  %35 = fdiv double %34, 1.000000e+03
  %36 = getelementptr inbounds nuw i8, ptr %2, i64 56
  store double %35, ptr %36, align 8
  %37 = getelementptr inbounds nuw i8, ptr %7, i64 64
  %38 = load i64, ptr %37, align 8
  %39 = getelementptr inbounds nuw i8, ptr %2, i64 64
  store i64 %38, ptr %39, align 16
  %40 = call ptr @heap_form_tuple(ptr noundef %5, ptr noundef nonnull %2, ptr noundef nonnull %3) #9
  %41 = getelementptr i8, ptr %40, i64 16
  %.val = load ptr, ptr %41, align 8
  %42 = call i64 @HeapTupleHeaderGetDatum(ptr noundef %.val) #9
  call void @llvm.lifetime.end.p0(i64 256, ptr nonnull %4) #9
  call void @llvm.lifetime.end.p0(i64 9, ptr nonnull %3) #9
  call void @llvm.lifetime.end.p0(i64 72, ptr nonnull %2) #9
  ret i64 %42
}